target datalayout = "e-m:e-p270:32:32-p271:32:32-p272:64:64-i64:64-i128:128-f80:128-n8:16:32:64-S128"
target triple = "x86_64-pc-linux-gnu"

%struct.in6_addr = type { %union.anon.6 }
%union.anon.6 = type { [4 x i32] }
%struct.uv_udp_s = type { ptr, ptr, i32, ptr, %struct.uv__queue, %union.anon, ptr, i32, i64, i64, ptr, ptr, %struct.uv__io_s, %struct.uv__queue, %struct.uv__queue }
%union.anon = type { [4 x ptr] }
%struct.uv__io_s = type { ptr, %struct.uv__queue, %struct.uv__queue, i32, i32, i32 }
%struct.uv__queue = type { ptr, ptr }
%struct.sockaddr_storage = type { i16, [118 x i8], i64 }
%union.uv__sockaddr = type { %struct.sockaddr_in6 }
%struct.sockaddr_in6 = type { i16, i16, i32, %struct.in6_addr, i32 }
%struct.sockaddr_in = type { i16, i16, %struct.in_addr, [8 x i8] }
%struct.in_addr = type { i32 }
%struct.group_source_req = type { i32, %struct.sockaddr_storage, %struct.sockaddr_storage }
%struct.ip_mreq_source = type { %struct.in_addr, %struct.in_addr, %struct.in_addr }

@in6addr_any = external constant %struct.in6_addr, align 4

; Function Attrs: inlinehint nounwind uwtable
define internal i32 @__bswap_32(i32 noundef %0) #3 {
  %2 = alloca i32, align 4
  store i32 %0, ptr %2, align 4
  %3 = load i32, ptr %2, align 4
  %4 = and i32 %3, -16777216
  %5 = lshr i32 %4, 24
  %6 = load i32, ptr %2, align 4
  %7 = and i32 %6, 16711680
  %8 = lshr i32 %7, 8
  %9 = or i32 %5, %8
  %10 = load i32, ptr %2, align 4
  %11 = and i32 %10, 65280
  %12 = shl i32 %11, 8
  %13 = or i32 %9, %12
  %14 = load i32, ptr %2, align 4
  %15 = and i32 %14, 255
  %16 = shl i32 %15, 24
  %17 = or i32 %13, %16
  ret i32 %17
}

; Function Attrs: nounwind uwtable
define internal i32 @uv__udp_maybe_deferred_bind(ptr noundef %0, i32 noundef %1, i32 noundef %2) #0 {
  %4 = alloca i32, align 4
  %5 = alloca ptr, align 8
  %6 = alloca i32, align 4
  %7 = alloca i32, align 4
  %8 = alloca %union.uv__sockaddr, align 4
  %9 = alloca i32, align 4
  %10 = alloca i32, align 4
  %11 = alloca ptr, align 8
  %12 = alloca ptr, align 8
  store ptr %0, ptr %5, align 8
  store i32 %1, ptr %6, align 4
  store i32 %2, ptr %7, align 4
  call void @llvm.lifetime.start.p0(i64 28, ptr %8) #10
  call void @llvm.lifetime.start.p0(i64 4, ptr %9) #10
  %13 = load ptr, ptr %5, align 8
  %14 = getelementptr inbounds nuw %struct.uv_udp_s, ptr %13, i32 0, i32 12
  %15 = getelementptr inbounds nuw %struct.uv__io_s, ptr %14, i32 0, i32 5
  %16 = load i32, ptr %15, align 8
  %17 = icmp ne i32 %16, -1
  br i1 %17, label %18, label %19

18:                                               ; preds = %3
  store i32 0, ptr %4, align 4
  store i32 1, ptr %10, align 4
  br label %40

19:                                               ; preds = %3
  %20 = load i32, ptr %6, align 4
  switch i32 %20, label %34 [
    i32 2, label %21
    i32 10, label %28
  ]

21:                                               ; preds = %19
  call void @llvm.lifetime.start.p0(i64 8, ptr %11) #10
  store ptr %8, ptr %11, align 8
  %22 = load ptr, ptr %11, align 8
  call void @llvm.memset.p0.i64(ptr align 4 %22, i8 0, i64 16, i1 false)
  %23 = load ptr, ptr %11, align 8
  %24 = getelementptr inbounds nuw %struct.sockaddr_in, ptr %23, i32 0, i32 0
  store i16 2, ptr %24, align 4
  %25 = load ptr, ptr %11, align 8
  %26 = getelementptr inbounds nuw %struct.sockaddr_in, ptr %25, i32 0, i32 2
  %27 = getelementptr inbounds nuw %struct.in_addr, ptr %26, i32 0, i32 0
  store i32 0, ptr %27, align 4
  store i32 16, ptr %9, align 4
  store i32 2, ptr %10, align 4
  call void @llvm.lifetime.end.p0(i64 8, ptr %11) #10
  br label %35

28:                                               ; preds = %19
  call void @llvm.lifetime.start.p0(i64 8, ptr %12) #10
  store ptr %8, ptr %12, align 8
  %29 = load ptr, ptr %12, align 8
  call void @llvm.memset.p0.i64(ptr align 4 %29, i8 0, i64 28, i1 false)
  %30 = load ptr, ptr %12, align 8
  %31 = getelementptr inbounds nuw %struct.sockaddr_in6, ptr %30, i32 0, i32 0
  store i16 10, ptr %31, align 4
  %32 = load ptr, ptr %12, align 8
  %33 = getelementptr inbounds nuw %struct.sockaddr_in6, ptr %32, i32 0, i32 3
  call void @llvm.memcpy.p0.p0.i64(ptr align 4 %33, ptr align 4 @in6addr_any, i64 16, i1 false)
  store i32 28, ptr %9, align 4
  store i32 2, ptr %10, align 4
  call void @llvm.lifetime.end.p0(i64 8, ptr %12) #10
  br label %35

34:                                               ; preds = %19
  call void @abort() #12
  unreachable

35:                                               ; preds = %28, %21
  %36 = load ptr, ptr %5, align 8
  %37 = load i32, ptr %9, align 4
  %38 = load i32, ptr %7, align 4
  %39 = call i32 @uv__udp_bind(ptr noundef %36, ptr noundef %8, i32 noundef %37, i32 noundef %38)
  store i32 %39, ptr %4, align 4
  store i32 1, ptr %10, align 4
  br label %40

40:                                               ; preds = %35, %18
  call void @llvm.lifetime.end.p0(i64 4, ptr %9) #10
  call void @llvm.lifetime.end.p0(i64 28, ptr %8) #10
  %41 = load i32, ptr %4, align 4
  ret i32 %41
}

; Function Attrs: nounwind uwtable
define internal i32 @uv__udp_set_source_membership4(ptr noundef %0, ptr noundef %1, ptr noundef %2, ptr noundef %3, i32 noundef %4) #0 {
  %6 = alloca i32, align 4
  %7 = alloca ptr, align 8
  %8 = alloca ptr, align 8
  %9 = alloca ptr, align 8
  %10 = alloca ptr, align 8
  %11 = alloca i32, align 4
  %12 = alloca %struct.ip_mreq_source, align 4
  %13 = alloca i32, align 4
  %14 = alloca i32, align 4
  %15 = alloca i32, align 4
  store ptr %0, ptr %7, align 8
  store ptr %1, ptr %8, align 8
  store ptr %2, ptr %9, align 8
  store ptr %3, ptr %10, align 8
  store i32 %4, ptr %11, align 4
  call void @llvm.lifetime.start.p0(i64 12, ptr %12) #10
  call void @llvm.lifetime.start.p0(i64 4, ptr %13) #10
  call void @llvm.lifetime.start.p0(i64 4, ptr %14) #10
  %16 = load ptr, ptr %7, align 8
  %17 = call i32 @uv__udp_maybe_deferred_bind(ptr noundef %16, i32 noundef 2, i32 noundef 4)
  store i32 %17, ptr %14, align 4
  %18 = load i32, ptr %14, align 4
  %19 = icmp ne i32 %18, 0
  br i1 %19, label %20, label %22

20:                                               ; preds = %5
  %21 = load i32, ptr %14, align 4
  store i32 %21, ptr %6, align 4
  store i32 1, ptr %15, align 4
  br label %74

22:                                               ; preds = %5
  call void @llvm.memset.p0.i64(ptr align 4 %12, i8 0, i64 12, i1 false)
  %23 = load ptr, ptr %9, align 8
  %24 = icmp ne ptr %23, null
  br i1 %24, label %25, label %35

25:                                               ; preds = %22
  %26 = load ptr, ptr %9, align 8
  %27 = getelementptr inbounds nuw %struct.ip_mreq_source, ptr %12, i32 0, i32 1
  %28 = getelementptr inbounds nuw %struct.in_addr, ptr %27, i32 0, i32 0
  %29 = call i32 @uv_inet_pton(i32 noundef 2, ptr noundef %26, ptr noundef %28)
  store i32 %29, ptr %14, align 4
  %30 = load i32, ptr %14, align 4
  %31 = icmp ne i32 %30, 0
  br i1 %31, label %32, label %34

32:                                               ; preds = %25
  %33 = load i32, ptr %14, align 4
  store i32 %33, ptr %6, align 4
  store i32 1, ptr %15, align 4
  br label %74

34:                                               ; preds = %25
  br label %39

35:                                               ; preds = %22
  %36 = call i32 @__bswap_32(i32 noundef 0)
  %37 = getelementptr inbounds nuw %struct.ip_mreq_source, ptr %12, i32 0, i32 1
  %38 = getelementptr inbounds nuw %struct.in_addr, ptr %37, i32 0, i32 0
  store i32 %36, ptr %38, align 4
  br label %39

39:                                               ; preds = %35, %34
  %40 = load ptr, ptr %8, align 8
  %41 = getelementptr inbounds nuw %struct.sockaddr_in, ptr %40, i32 0, i32 2
  %42 = getelementptr inbounds nuw %struct.in_addr, ptr %41, i32 0, i32 0
  %43 = load i32, ptr %42, align 4
  %44 = getelementptr inbounds nuw %struct.ip_mreq_source, ptr %12, i32 0, i32 0
  %45 = getelementptr inbounds nuw %struct.in_addr, ptr %44, i32 0, i32 0
  store i32 %43, ptr %45, align 4
  %46 = load ptr, ptr %10, align 8
  %47 = getelementptr inbounds nuw %struct.sockaddr_in, ptr %46, i32 0, i32 2
  %48 = getelementptr inbounds nuw %struct.in_addr, ptr %47, i32 0, i32 0
  %49 = load i32, ptr %48, align 4
  %50 = getelementptr inbounds nuw %struct.ip_mreq_source, ptr %12, i32 0, i32 2
  %51 = getelementptr inbounds nuw %struct.in_addr, ptr %50, i32 0, i32 0
  store i32 %49, ptr %51, align 4
  %52 = load i32, ptr %11, align 4
  %53 = icmp eq i32 %52, 1
  br i1 %53, label %54, label %55

54:                                               ; preds = %39
  store i32 39, ptr %13, align 4
  br label %61

55:                                               ; preds = %39
  %56 = load i32, ptr %11, align 4
  %57 = icmp eq i32 %56, 0
  br i1 %57, label %58, label %59

58:                                               ; preds = %55
  store i32 40, ptr %13, align 4
  br label %60

59:                                               ; preds = %55
  store i32 -22, ptr %6, align 4
  store i32 1, ptr %15, align 4
  br label %74

60:                                               ; preds = %58
  br label %61

61:                                               ; preds = %60, %54
  %62 = load ptr, ptr %7, align 8
  %63 = getelementptr inbounds nuw %struct.uv_udp_s, ptr %62, i32 0, i32 12
  %64 = getelementptr inbounds nuw %struct.uv__io_s, ptr %63, i32 0, i32 5
  %65 = load i32, ptr %64, align 8
  %66 = load i32, ptr %13, align 4
  %67 = call i32 @setsockopt(i32 noundef %65, i32 noundef 0, i32 noundef %66, ptr noundef %12, i32 noundef 12) #10
  %68 = icmp ne i32 %67, 0
  br i1 %68, label %69, label %73

69:                                               ; preds = %61
  %70 = call ptr @__errno_location() #11
  %71 = load i32, ptr %70, align 4
  %72 = sub nsw i32 0, %71
  store i32 %72, ptr %6, align 4
  store i32 1, ptr %15, align 4
  br label %74

73:                                               ; preds = %61
  store i32 0, ptr %6, align 4
  store i32 1, ptr %15, align 4
  br label %74

74:                                               ; preds = %73, %69, %59, %32, %20
  call void @llvm.lifetime.end.p0(i64 4, ptr %14) #10
  call void @llvm.lifetime.end.p0(i64 4, ptr %13) #10
  call void @llvm.lifetime.end.p0(i64 12, ptr %12) #10
  %75 = load i32, ptr %6, align 4
  ret i32 %75
}

; Function Attrs: nounwind uwtable
define internal i32 @uv__udp_set_source_membership6(ptr noundef %0, ptr noundef %1, ptr noundef %2, ptr noundef %3, i32 noundef %4) #0 {
  %6 = alloca i32, align 4
  %7 = alloca ptr, align 8
  %8 = alloca ptr, align 8
  %9 = alloca ptr, align 8
  %10 = alloca ptr, align 8
  %11 = alloca i32, align 4
  %12 = alloca %struct.group_source_req, align 8
  %13 = alloca %struct.sockaddr_in6, align 4
  %14 = alloca i32, align 4
  %15 = alloca i32, align 4
  %16 = alloca i32, align 4
  store ptr %0, ptr %7, align 8
  store ptr %1, ptr %8, align 8
  store ptr %2, ptr %9, align 8
  store ptr %3, ptr %10, align 8
  store i32 %4, ptr %11, align 4
  call void @llvm.lifetime.start.p0(i64 264, ptr %12) #10
  call void @llvm.lifetime.start.p0(i64 28, ptr %13) #10
  call void @llvm.lifetime.start.p0(i64 4, ptr %14) #10
  call void @llvm.lifetime.start.p0(i64 4, ptr %15) #10
  %17 = load ptr, ptr %7, align 8
  %18 = call i32 @uv__udp_maybe_deferred_bind(ptr noundef %17, i32 noundef 10, i32 noundef 4)
  store i32 %18, ptr %15, align 4
  %19 = load i32, ptr %15, align 4
  %20 = icmp ne i32 %19, 0
  br i1 %20, label %21, label %23

21:                                               ; preds = %5
  %22 = load i32, ptr %15, align 4
  store i32 %22, ptr %6, align 4
  store i32 1, ptr %16, align 4
  br label %66

23:                                               ; preds = %5
  call void @llvm.memset.p0.i64(ptr align 8 %12, i8 0, i64 264, i1 false)
  %24 = load ptr, ptr %9, align 8
  %25 = icmp ne ptr %24, null
  br i1 %25, label %26, label %37

26:                                               ; preds = %23
  %27 = load ptr, ptr %9, align 8
  %28 = call i32 @uv_ip6_addr(ptr noundef %27, i32 noundef 0, ptr noundef %13)
  store i32 %28, ptr %15, align 4
  %29 = load i32, ptr %15, align 4
  %30 = icmp ne i32 %29, 0
  br i1 %30, label %31, label %33

31:                                               ; preds = %26
  %32 = load i32, ptr %15, align 4
  store i32 %32, ptr %6, align 4
  store i32 1, ptr %16, align 4
  br label %66

33:                                               ; preds = %26
  %34 = getelementptr inbounds nuw %struct.sockaddr_in6, ptr %13, i32 0, i32 4
  %35 = load i32, ptr %34, align 4
  %36 = getelementptr inbounds nuw %struct.group_source_req, ptr %12, i32 0, i32 0
  store i32 %35, ptr %36, align 8
  br label %39

37:                                               ; preds = %23
  %38 = getelementptr inbounds nuw %struct.group_source_req, ptr %12, i32 0, i32 0
  store i32 0, ptr %38, align 8
  br label %39

39:                                               ; preds = %37, %33
  %40 = getelementptr inbounds nuw %struct.group_source_req, ptr %12, i32 0, i32 1
  %41 = load ptr, ptr %8, align 8
  call void @llvm.memcpy.p0.p0.i64(ptr align 8 %40, ptr align 4 %41, i64 28, i1 false)
  %42 = getelementptr inbounds nuw %struct.group_source_req, ptr %12, i32 0, i32 2
  %43 = load ptr, ptr %10, align 8
  call void @llvm.memcpy.p0.p0.i64(ptr align 8 %42, ptr align 4 %43, i64 28, i1 false)
  %44 = load i32, ptr %11, align 4
  %45 = icmp eq i32 %44, 1
  br i1 %45, label %46, label %47

46:                                               ; preds = %39
  store i32 46, ptr %14, align 4
  br label %53

47:                                               ; preds = %39
  %48 = load i32, ptr %11, align 4
  %49 = icmp eq i32 %48, 0
  br i1 %49, label %50, label %51

50:                                               ; preds = %47
  store i32 47, ptr %14, align 4
  br label %52

51:                                               ; preds = %47
  store i32 -22, ptr %6, align 4
  store i32 1, ptr %16, align 4
  br label %66

52:                                               ; preds = %50
  br label %53

53:                                               ; preds = %52, %46
  %54 = load ptr, ptr %7, align 8
  %55 = getelementptr inbounds nuw %struct.uv_udp_s, ptr %54, i32 0, i32 12
  %56 = getelementptr inbounds nuw %struct.uv__io_s, ptr %55, i32 0, i32 5
  %57 = load i32, ptr %56, align 8
  %58 = load i32, ptr %14, align 4
  %59 = call i32 @setsockopt(i32 noundef %57, i32 noundef 41, i32 noundef %58, ptr noundef %12, i32 noundef 264) #10
  %60 = icmp ne i32 %59, 0
  br i1 %60, label %61, label %65

61:                                               ; preds = %53
  %62 = call ptr @__errno_location() #11
  %63 = load i32, ptr %62, align 4
  %64 = sub nsw i32 0, %63
  store i32 %64, ptr %6, align 4
  store i32 1, ptr %16, align 4
  br label %66

65:                                               ; preds = %53
  store i32 0, ptr %6, align 4
  store i32 1, ptr %16, align 4
  br label %66

66:                                               ; preds = %65, %61, %51, %31, %21
  call void @llvm.lifetime.end.p0(i64 4, ptr %15) #10
  call void @llvm.lifetime.end.p0(i64 4, ptr %14) #10
  call void @llvm.lifetime.end.p0(i64 28, ptr %13) #10
  call void @llvm.lifetime.end.p0(i64 264, ptr %12) #10
  %67 = load i32, ptr %6, align 4
  ret i32 %67
}

; Function Attrs: nounwind uwtable
define dso_local i32 @uv_udp_set_source_membership(ptr noundef %0, ptr noundef %1, ptr noundef %2, ptr noundef %3, i32 noundef %4) #0 {
  %6 = alloca i32, align 4
  %7 = alloca ptr, align 8
  %8 = alloca ptr, align 8
  %9 = alloca ptr, align 8
  %10 = alloca ptr, align 8
  %11 = alloca i32, align 4
  %12 = alloca i32, align 4
  %13 = alloca %union.uv__sockaddr, align 4
  %14 = alloca %union.uv__sockaddr, align 4
  %15 = alloca i32, align 4
  store ptr %0, ptr %7, align 8
  store ptr %1, ptr %8, align 8
  store ptr %2, ptr %9, align 8
  store ptr %3, ptr %10, align 8
  store i32 %4, ptr %11, align 4
  call void @llvm.lifetime.start.p0(i64 4, ptr %12) #10
  call void @llvm.lifetime.start.p0(i64 28, ptr %13) #10
  call void @llvm.lifetime.start.p0(i64 28, ptr %14) #10
  %16 = load ptr, ptr %8, align 8
  %17 = call i32 @uv_ip4_addr(ptr noundef %16, i32 noundef 0, ptr noundef %13)
  store i32 %17, ptr %12, align 4
  %18 = load i32, ptr %12, align 4
  %19 = icmp ne i32 %18, 0
  br i1 %19, label %20, label %39

20:                                               ; preds = %5
  %21 = load ptr, ptr %8, align 8
  %22 = call i32 @uv_ip6_addr(ptr noundef %21, i32 noundef 0, ptr noundef %13)
  store i32 %22, ptr %12, align 4
  %23 = load i32, ptr %12, align 4
  %24 = icmp ne i32 %23, 0
  br i1 %24, label %25, label %27

25:                                               ; preds = %20
  %26 = load i32, ptr %12, align 4
  store i32 %26, ptr %6, align 4
  store i32 1, ptr %15, align 4
  br label %51

27:                                               ; preds = %20
  %28 = load ptr, ptr %10, align 8
  %29 = call i32 @uv_ip6_addr(ptr noundef %28, i32 noundef 0, ptr noundef %14)
  store i32 %29, ptr %12, align 4
  %30 = load i32, ptr %12, align 4
  %31 = icmp ne i32 %30, 0
  br i1 %31, label %32, label %34

32:                                               ; preds = %27
  %33 = load i32, ptr %12, align 4
  store i32 %33, ptr %6, align 4
  store i32 1, ptr %15, align 4
  br label %51

34:                                               ; preds = %27
  %35 = load ptr, ptr %7, align 8
  %36 = load ptr, ptr %9, align 8
  %37 = load i32, ptr %11, align 4
  %38 = call i32 @uv__udp_set_source_membership6(ptr noundef %35, ptr noundef %13, ptr noundef %36, ptr noundef %14, i32 noundef %37)
  store i32 %38, ptr %6, align 4
  store i32 1, ptr %15, align 4
  br label %51

39:                                               ; preds = %5
  %40 = load ptr, ptr %10, align 8
  %41 = call i32 @uv_ip4_addr(ptr noundef %40, i32 noundef 0, ptr noundef %14)
  store i32 %41, ptr %12, align 4
  %42 = load i32, ptr %12, align 4
  %43 = icmp ne i32 %42, 0
  br i1 %43, label %44, label %46

44:                                               ; preds = %39
  %45 = load i32, ptr %12, align 4
  store i32 %45, ptr %6, align 4
  store i32 1, ptr %15, align 4
  br label %51

46:                                               ; preds = %39
  %47 = load ptr, ptr %7, align 8
  %48 = load ptr, ptr %9, align 8
  %49 = load i32, ptr %11, align 4
  %50 = call i32 @uv__udp_set_source_membership4(ptr noundef %47, ptr noundef %13, ptr noundef %48, ptr noundef %14, i32 noundef %49)
  store i32 %50, ptr %6, align 4
  store i32 1, ptr %15, align 4
  br label %51

51:                                               ; preds = %46, %44, %34, %32, %25
  call void @llvm.lifetime.end.p0(i64 28, ptr %14) #10
  call void @llvm.lifetime.end.p0(i64 28, ptr %13) #10
  call void @llvm.lifetime.end.p0(i64 4, ptr %12) #10
  %52 = load i32, ptr %6, align 4
  ret i32 %52
}